; Function Attrs: nounwind uwtable
define internal noundef i32 @lj_cf_jit_profile_stop(ptr noundef %0) #0 {
  %2 = alloca %union.TValue, align 8
  call void @llvm.lifetime.start.p0(i64 8, ptr nonnull %2) #8
  tail call void @luaJIT_profile_stop(ptr noundef %0) #8
  %3 = getelementptr inbounds nuw i8, ptr %0, i64 16
  %4 = load i64, ptr %3, align 8, !tbaa !4
  %5 = inttoptr i64 %4 to ptr
  %6 = getelementptr inbounds nuw i8, ptr %5, i64 272
  %7 = load i64, ptr %6, align 8, !tbaa !34
  %8 = and i64 %7, 140737488355327
  %9 = inttoptr i64 %8 to ptr
  store i64 -9223372036854775692, ptr %2, align 8, !tbaa !34
  %10 = call ptr @lj_tab_set(ptr noundef %0, ptr noundef %9, ptr noundef nonnull %2) #8
  store i64 -1, ptr %10, align 8, !tbaa !34
  store i64 -9223372036854775706, ptr %2, align 8, !tbaa !34
  %11 = call ptr @lj_tab_set(ptr noundef %0, ptr noundef %9, ptr noundef nonnull %2) #8
  store i64 -1, ptr %11, align 8, !tbaa !34
  %12 = getelementptr inbounds nuw i8, ptr %9, i64 8
  %13 = load i8, ptr %12, align 8, !tbaa !34
  %14 = and i8 %13, 4
  %.not = icmp eq i8 %14, 0
  br i1 %.not, label %22, label %15, !prof !49

15:                                               ; preds = %1
  %16 = load i64, ptr %3, align 8, !tbaa !4
  %17 = inttoptr i64 %16 to ptr
  %18 = and i8 %13, -5
  store i8 %18, ptr %12, align 8, !tbaa !34
  %19 = getelementptr inbounds nuw i8, ptr %17, i64 64
  %20 = load i64, ptr %19, align 8, !tbaa !50
  %21 = getelementptr inbounds nuw i8, ptr %9, i64 24
  store i64 %20, ptr %21, align 8, !tbaa !51
  store i64 %8, ptr %19, align 8, !tbaa !50
  br label %22

22:                                               ; preds = %15, %1
  call void @llvm.lifetime.end.p0(i64 8, ptr nonnull %2) #8
  ret i32 0
}